---
triple:          'x86_64-apple-darwin'
binary-path:     '/Users/zhaohe/Library/CloudStorage/OneDrive-Personal/Code/HumbleNumbers'
relocations:
  - { offsetInCU: 0x3F, offset: 0x3F, size: 0x8, addend: 0x0, symName: _rt, symObjAddr: 0x20D68, symBinAddr: 0x100008000, symSize: 0x0 }
  - { offsetInCU: 0x61FA, offset: 0x61FA, size: 0x8, addend: 0x0, symName: __ZNSt3__1neB7v160002IPxEEbRKNS_11__wrap_iterIT_EES6_, symObjAddr: 0x520, symBinAddr: 0x100002900, symSize: 0x30 }
  - { offsetInCU: 0x623D, offset: 0x623D, size: 0x8, addend: 0x0, symName: __ZNSt3__13minB7v160002IxEERKT_S3_S3_, symObjAddr: 0x5E0, symBinAddr: 0x1000029C0, symSize: 0x30 }
  - { offsetInCU: 0x6280, offset: 0x6280, size: 0x8, addend: 0x0, symName: __ZNSt3__122__make_exception_guardB7v160002INS_6vectorIxNS_9allocatorIxEEE16__destroy_vectorEEENS_28__exception_guard_exceptionsIT_EES7_, symObjAddr: 0x740, symBinAddr: 0x100002B20, symSize: 0x40 }
  - { offsetInCU: 0x62B5, offset: 0x62B5, size: 0x8, addend: 0x0, symName: __ZNSt3__119__debug_db_insert_cB7v160002INS_6vectorIxNS_9allocatorIxEEEEEEvPT_, symObjAddr: 0x7B0, symBinAddr: 0x100002B90, symSize: 0x10 }
  - { offsetInCU: 0x62E6, offset: 0x62E6, size: 0x8, addend: 0x0, symName: __ZNSt3__119__allocate_at_leastB7v160002INS_9allocatorIxEEEENS_19__allocation_resultINS_16allocator_traitsIT_E7pointerEEERS5_m, symObjAddr: 0xB00, symBinAddr: 0x100002EE0, symSize: 0x40 }
  - { offsetInCU: 0x6329, offset: 0x6329, size: 0x8, addend: 0x0, symName: __ZNSt3__13minB7v160002ImEERKT_S3_S3_, symObjAddr: 0xC30, symBinAddr: 0x100003010, symSize: 0x30 }
  - { offsetInCU: 0x6556, offset: 0x6556, size: 0x8, addend: 0x0, symName: __ZNSt3__13minB7v160002ImNS_6__lessImmEEEERKT_S5_S5_T0_, symObjAddr: 0xCC0, symBinAddr: 0x1000030A0, symSize: 0x50 }
  - { offsetInCU: 0x65EB, offset: 0x65EB, size: 0x8, addend: 0x0, symName: __ZNSt3__120__throw_length_errorB7v160002EPKc, symObjAddr: 0xDA0, symBinAddr: 0x100003180, symSize: 0x70 }
  - { offsetInCU: 0x6613, offset: 0x6613, size: 0x8, addend: 0x0, symName: __ZNSt3__117__libcpp_allocateB7v160002Emm, symObjAddr: 0xF10, symBinAddr: 0x1000032F0, symSize: 0x60 }
  - { offsetInCU: 0x666D, offset: 0x666D, size: 0x8, addend: 0x0, symName: __ZNSt3__124__is_overaligned_for_newB7v160002Em, symObjAddr: 0xF70, symBinAddr: 0x100003350, symSize: 0x20 }
  - { offsetInCU: 0x669B, offset: 0x669B, size: 0x8, addend: 0x0, symName: __ZNSt3__121__libcpp_operator_newB7v160002IJmSt11align_val_tEEEPvDpT_, symObjAddr: 0xF90, symBinAddr: 0x100003370, symSize: 0x30 }
  - { offsetInCU: 0x66E8, offset: 0x66E8, size: 0x8, addend: 0x0, symName: __ZNSt3__121__libcpp_operator_newB7v160002IJmEEEPvDpT_, symObjAddr: 0xFC0, symBinAddr: 0x1000033A0, symSize: 0x20 }
  - { offsetInCU: 0x6721, offset: 0x6721, size: 0x8, addend: 0x0, symName: __ZNSt3__112__to_addressB7v160002IxEEPT_S2_, symObjAddr: 0x10B0, symBinAddr: 0x100003490, symSize: 0x10 }
  - { offsetInCU: 0x6756, offset: 0x6756, size: 0x8, addend: 0x0, symName: __ZNSt3__118__debug_db_erase_cB7v160002INS_6vectorIxNS_9allocatorIxEEEEEEvPT_, symObjAddr: 0x1390, symBinAddr: 0x100003770, symSize: 0x10 }
  - { offsetInCU: 0x6787, offset: 0x6787, size: 0x8, addend: 0x0, symName: __ZNSt3__119__libcpp_deallocateB7v160002EPvmm, symObjAddr: 0x1510, symBinAddr: 0x1000038F0, symSize: 0x60 }
  - { offsetInCU: 0x67EC, offset: 0x67EC, size: 0x8, addend: 0x0, symName: __ZNSt3__127__do_deallocate_handle_sizeB7v160002IJSt11align_val_tEEEvPvmDpT_, symObjAddr: 0x1570, symBinAddr: 0x100003950, symSize: 0x30 }
  - { offsetInCU: 0x683F, offset: 0x683F, size: 0x8, addend: 0x0, symName: __ZNSt3__127__do_deallocate_handle_sizeB7v160002IJEEEvPvmDpT_, symObjAddr: 0x15A0, symBinAddr: 0x100003980, symSize: 0x20 }
  - { offsetInCU: 0x687D, offset: 0x687D, size: 0x8, addend: 0x0, symName: __ZNSt3__124__libcpp_operator_deleteB7v160002IJPvSt11align_val_tEEEvDpT_, symObjAddr: 0x15C0, symBinAddr: 0x1000039A0, symSize: 0x30 }
  - { offsetInCU: 0x68C6, offset: 0x68C6, size: 0x8, addend: 0x0, symName: __ZNSt3__124__libcpp_operator_deleteB7v160002IJPvEEEvDpT_, symObjAddr: 0x15F0, symBinAddr: 0x1000039D0, symSize: 0x20 }
  - { offsetInCU: 0x68FB, offset: 0x68FB, size: 0x8, addend: 0x0, symName: __ZNSt3__1eqB7v160002IPxEEbRKNS_11__wrap_iterIT_EES6_, symObjAddr: 0x1690, symBinAddr: 0x100003A70, symSize: 0x40 }
  - { offsetInCU: 0x693E, offset: 0x693E, size: 0x8, addend: 0x0, symName: __ZNSt3__13minB7v160002IxNS_6__lessIxxEEEERKT_S5_S5_T0_, symObjAddr: 0x18E0, symBinAddr: 0x100003CC0, symSize: 0x50 }
  - { offsetInCU: 0x6CA9, offset: 0x6CA9, size: 0x8, addend: 0x0, symName: __ZSt28__throw_bad_array_new_lengthB7v160002v, symObjAddr: 0xED0, symBinAddr: 0x1000032B0, symSize: 0x40 }
  - { offsetInCU: 0x9302, offset: 0x9302, size: 0x8, addend: 0x0, symName: _main, symObjAddr: 0x0, symBinAddr: 0x1000023E0, symSize: 0xD0 }
  - { offsetInCU: 0x93E2, offset: 0x93E2, size: 0x8, addend: 0x0, symName: __ZNSt3__19basic_iosIcNS_11char_traitsIcEEE3tieB7v160002EPNS_13basic_ostreamIcS2_EE, symObjAddr: 0xD0, symBinAddr: 0x1000024B0, symSize: 0x30 }
  - { offsetInCU: 0x9427, offset: 0x9427, size: 0x8, addend: 0x0, symName: __Z5solvev, symObjAddr: 0x100, symBinAddr: 0x1000024E0, symSize: 0x390 }
  - { offsetInCU: 0x9527, offset: 0x9527, size: 0x8, addend: 0x0, symName: __ZNSt3__16vectorIxNS_9allocatorIxEEEC1Em, symObjAddr: 0x490, symBinAddr: 0x100002870, symSize: 0x30 }
  - { offsetInCU: 0x9562, offset: 0x9562, size: 0x8, addend: 0x0, symName: __ZNSt3__16vectorIxNS_9allocatorIxEEE5beginB7v160002Ev, symObjAddr: 0x4C0, symBinAddr: 0x1000028A0, symSize: 0x30 }
  - { offsetInCU: 0x958A, offset: 0x958A, size: 0x8, addend: 0x0, symName: __ZNSt3__16vectorIxNS_9allocatorIxEEE3endB7v160002Ev, symObjAddr: 0x4F0, symBinAddr: 0x1000028D0, symSize: 0x30 }
  - { offsetInCU: 0x95B2, offset: 0x95B2, size: 0x8, addend: 0x0, symName: __ZNKSt3__111__wrap_iterIPxEdeB7v160002Ev, symObjAddr: 0x550, symBinAddr: 0x100002930, symSize: 0x20 }
  - { offsetInCU: 0x95D8, offset: 0x95D8, size: 0x8, addend: 0x0, symName: __ZNSt3__111__wrap_iterIPxEppB7v160002Ev, symObjAddr: 0x570, symBinAddr: 0x100002950, symSize: 0x20 }
  - { offsetInCU: 0x95FE, offset: 0x95FE, size: 0x8, addend: 0x0, symName: __ZNSt3__16vectorIxNS_9allocatorIxEEEC1EmRKx, symObjAddr: 0x590, symBinAddr: 0x100002970, symSize: 0x30 }
  - { offsetInCU: 0x9648, offset: 0x9648, size: 0x8, addend: 0x0, symName: __ZNSt3__16vectorIxNS_9allocatorIxEEEixB7v160002Em, symObjAddr: 0x5C0, symBinAddr: 0x1000029A0, symSize: 0x20 }
  - { offsetInCU: 0x967F, offset: 0x967F, size: 0x8, addend: 0x0, symName: __ZNSt3__16vectorIxNS_9allocatorIxEEED1B7v160002Ev, symObjAddr: 0x610, symBinAddr: 0x1000029F0, symSize: 0x20 }
  - { offsetInCU: 0x96A9, offset: 0x96A9, size: 0x8, addend: 0x0, symName: __ZNSt3__16vectorIxNS_9allocatorIxEEEC2Em, symObjAddr: 0x630, symBinAddr: 0x100002A10, symSize: 0xE0 }
  - { offsetInCU: 0x9704, offset: 0x9704, size: 0x8, addend: 0x0, symName: __ZNSt3__117__compressed_pairIPxNS_9allocatorIxEEEC1B7v160002IDnNS_18__default_init_tagEEEOT_OT0_, symObjAddr: 0x710, symBinAddr: 0x100002AF0, symSize: 0x30 }
  - { offsetInCU: 0x975C, offset: 0x975C, size: 0x8, addend: 0x0, symName: __ZNSt3__16vectorIxNS_9allocatorIxEEE16__destroy_vectorC1ERS3_, symObjAddr: 0x780, symBinAddr: 0x100002B60, symSize: 0x30 }
  - { offsetInCU: 0x9795, offset: 0x9795, size: 0x8, addend: 0x0, symName: __ZNSt3__16vectorIxNS_9allocatorIxEEE11__vallocateB7v160002Em, symObjAddr: 0x7C0, symBinAddr: 0x100002BA0, symSize: 0xA0 }
  - { offsetInCU: 0x97D9, offset: 0x97D9, size: 0x8, addend: 0x0, symName: __ZNSt3__16vectorIxNS_9allocatorIxEEE18__construct_at_endEm, symObjAddr: 0x860, symBinAddr: 0x100002C40, symSize: 0xC0 }
  - { offsetInCU: 0x984B, offset: 0x984B, size: 0x8, addend: 0x0, symName: __ZNSt3__128__exception_guard_exceptionsINS_6vectorIxNS_9allocatorIxEEE16__destroy_vectorEE10__completeB7v160002Ev, symObjAddr: 0x920, symBinAddr: 0x100002D00, symSize: 0x20 }
  - { offsetInCU: 0x9871, offset: 0x9871, size: 0x8, addend: 0x0, symName: __ZNSt3__128__exception_guard_exceptionsINS_6vectorIxNS_9allocatorIxEEE16__destroy_vectorEED1B7v160002Ev, symObjAddr: 0x940, symBinAddr: 0x100002D20, symSize: 0x20 }
  - { offsetInCU: 0x989B, offset: 0x989B, size: 0x8, addend: 0x0, symName: __ZNSt3__117__compressed_pairIPxNS_9allocatorIxEEEC2B7v160002IDnNS_18__default_init_tagEEEOT_OT0_, symObjAddr: 0x960, symBinAddr: 0x100002D40, symSize: 0x40 }
  - { offsetInCU: 0x98F3, offset: 0x98F3, size: 0x8, addend: 0x0, symName: __ZNSt3__122__compressed_pair_elemIPxLi0ELb0EEC2B7v160002IDnvEEOT_, symObjAddr: 0x9A0, symBinAddr: 0x100002D80, symSize: 0x20 }
  - { offsetInCU: 0x9935, offset: 0x9935, size: 0x8, addend: 0x0, symName: __ZNSt3__122__compressed_pair_elemINS_9allocatorIxEELi1ELb1EEC2B7v160002ENS_18__default_init_tagE, symObjAddr: 0x9C0, symBinAddr: 0x100002DA0, symSize: 0x20 }
  - { offsetInCU: 0x996A, offset: 0x996A, size: 0x8, addend: 0x0, symName: __ZNSt3__19allocatorIxEC2B7v160002Ev, symObjAddr: 0x9E0, symBinAddr: 0x100002DC0, symSize: 0x20 }
  - { offsetInCU: 0x9994, offset: 0x9994, size: 0x8, addend: 0x0, symName: __ZNSt3__116__non_trivial_ifILb1ENS_9allocatorIxEEEC2B7v160002Ev, symObjAddr: 0xA00, symBinAddr: 0x100002DE0, symSize: 0x10 }
  - { offsetInCU: 0x99BE, offset: 0x99BE, size: 0x8, addend: 0x0, symName: __ZNSt3__128__exception_guard_exceptionsINS_6vectorIxNS_9allocatorIxEEE16__destroy_vectorEEC1B7v160002ES5_, symObjAddr: 0xA10, symBinAddr: 0x100002DF0, symSize: 0x30 }
  - { offsetInCU: 0x99F6, offset: 0x99F6, size: 0x8, addend: 0x0, symName: __ZNSt3__128__exception_guard_exceptionsINS_6vectorIxNS_9allocatorIxEEE16__destroy_vectorEEC2B7v160002ES5_, symObjAddr: 0xA40, symBinAddr: 0x100002E20, symSize: 0x20 }
  - { offsetInCU: 0x9A2E, offset: 0x9A2E, size: 0x8, addend: 0x0, symName: __ZNSt3__16vectorIxNS_9allocatorIxEEE16__destroy_vectorC2ERS3_, symObjAddr: 0xA60, symBinAddr: 0x100002E40, symSize: 0x20 }
  - { offsetInCU: 0x9A67, offset: 0x9A67, size: 0x8, addend: 0x0, symName: __ZNKSt3__16vectorIxNS_9allocatorIxEEE8max_sizeEv, symObjAddr: 0xA80, symBinAddr: 0x100002E60, symSize: 0x60 }
  - { offsetInCU: 0x9A8F, offset: 0x9A8F, size: 0x8, addend: 0x0, symName: __ZNKSt3__16vectorIxNS_9allocatorIxEEE20__throw_length_errorB7v160002Ev, symObjAddr: 0xAE0, symBinAddr: 0x100002EC0, symSize: 0x20 }
  - { offsetInCU: 0x9AB5, offset: 0x9AB5, size: 0x8, addend: 0x0, symName: __ZNSt3__16vectorIxNS_9allocatorIxEEE7__allocB7v160002Ev, symObjAddr: 0xB40, symBinAddr: 0x100002F20, symSize: 0x20 }
  - { offsetInCU: 0x9ADB, offset: 0x9ADB, size: 0x8, addend: 0x0, symName: __ZNSt3__16vectorIxNS_9allocatorIxEEE9__end_capB7v160002Ev, symObjAddr: 0xB60, symBinAddr: 0x100002F40, symSize: 0x20 }
  - { offsetInCU: 0x9B01, offset: 0x9B01, size: 0x8, addend: 0x0, symName: __ZNKSt3__16vectorIxNS_9allocatorIxEEE14__annotate_newB7v160002Em, symObjAddr: 0xB80, symBinAddr: 0x100002F60, symSize: 0xB0 }
  - { offsetInCU: 0x9B40, offset: 0x9B40, size: 0x8, addend: 0x0, symName: __ZNSt3__116allocator_traitsINS_9allocatorIxEEE8max_sizeB7v160002IS2_vEEmRKS2_, symObjAddr: 0xC60, symBinAddr: 0x100003040, symSize: 0x20 }
  - { offsetInCU: 0x9B6E, offset: 0x9B6E, size: 0x8, addend: 0x0, symName: __ZNKSt3__16vectorIxNS_9allocatorIxEEE7__allocB7v160002Ev, symObjAddr: 0xC80, symBinAddr: 0x100003060, symSize: 0x20 }
  - { offsetInCU: 0x9B94, offset: 0x9B94, size: 0x8, addend: 0x0, symName: __ZNSt3__114numeric_limitsIlE3maxB7v160002Ev, symObjAddr: 0xCA0, symBinAddr: 0x100003080, symSize: 0x10 }
  - { offsetInCU: 0x9BBC, offset: 0x9BBC, size: 0x8, addend: 0x0, symName: __ZNKSt3__16__lessImmEclB7v160002ERKmS3_, symObjAddr: 0xD10, symBinAddr: 0x1000030F0, symSize: 0x30 }
  - { offsetInCU: 0x9BFE, offset: 0x9BFE, size: 0x8, addend: 0x0, symName: __ZNKSt3__19allocatorIxE8max_sizeB7v160002Ev, symObjAddr: 0xD40, symBinAddr: 0x100003120, symSize: 0x20 }
  - { offsetInCU: 0x9C24, offset: 0x9C24, size: 0x8, addend: 0x0, symName: __ZNKSt3__117__compressed_pairIPxNS_9allocatorIxEEE6secondB7v160002Ev, symObjAddr: 0xD60, symBinAddr: 0x100003140, symSize: 0x20 }
  - { offsetInCU: 0x9C4A, offset: 0x9C4A, size: 0x8, addend: 0x0, symName: __ZNKSt3__122__compressed_pair_elemINS_9allocatorIxEELi1ELb1EE5__getB7v160002Ev, symObjAddr: 0xD80, symBinAddr: 0x100003160, symSize: 0x10 }
  - { offsetInCU: 0x9C70, offset: 0x9C70, size: 0x8, addend: 0x0, symName: __ZNSt3__123__libcpp_numeric_limitsIlLb1EE3maxB7v160002Ev, symObjAddr: 0xD90, symBinAddr: 0x100003170, symSize: 0x10 }
  - { offsetInCU: 0x9C84, offset: 0x9C84, size: 0x8, addend: 0x0, symName: __ZNSt12length_errorC1B7v160002EPKc, symObjAddr: 0xE10, symBinAddr: 0x1000031F0, symSize: 0x30 }
  - { offsetInCU: 0x9CBC, offset: 0x9CBC, size: 0x8, addend: 0x0, symName: __ZNSt12length_errorC2B7v160002EPKc, symObjAddr: 0xE40, symBinAddr: 0x100003220, symSize: 0x40 }
  - { offsetInCU: 0x9CF4, offset: 0x9CF4, size: 0x8, addend: 0x0, symName: __ZNSt3__19allocatorIxE8allocateB7v160002Em, symObjAddr: 0xE80, symBinAddr: 0x100003260, symSize: 0x50 }
  - { offsetInCU: 0x9D28, offset: 0x9D28, size: 0x8, addend: 0x0, symName: __ZNSt3__117__compressed_pairIPxNS_9allocatorIxEEE6secondB7v160002Ev, symObjAddr: 0xFE0, symBinAddr: 0x1000033C0, symSize: 0x20 }
  - { offsetInCU: 0x9D4E, offset: 0x9D4E, size: 0x8, addend: 0x0, symName: __ZNSt3__122__compressed_pair_elemINS_9allocatorIxEELi1ELb1EE5__getB7v160002Ev, symObjAddr: 0x1000, symBinAddr: 0x1000033E0, symSize: 0x10 }
  - { offsetInCU: 0x9D74, offset: 0x9D74, size: 0x8, addend: 0x0, symName: __ZNSt3__117__compressed_pairIPxNS_9allocatorIxEEE5firstB7v160002Ev, symObjAddr: 0x1010, symBinAddr: 0x1000033F0, symSize: 0x20 }
  - { offsetInCU: 0x9D9A, offset: 0x9D9A, size: 0x8, addend: 0x0, symName: __ZNSt3__122__compressed_pair_elemIPxLi0ELb0EE5__getB7v160002Ev, symObjAddr: 0x1030, symBinAddr: 0x100003410, symSize: 0x10 }
  - { offsetInCU: 0x9DC0, offset: 0x9DC0, size: 0x8, addend: 0x0, symName: __ZNKSt3__16vectorIxNS_9allocatorIxEEE31__annotate_contiguous_containerB7v160002EPKvS5_S5_S5_, symObjAddr: 0x1040, symBinAddr: 0x100003420, symSize: 0x20 }
  - { offsetInCU: 0x9E16, offset: 0x9E16, size: 0x8, addend: 0x0, symName: __ZNKSt3__16vectorIxNS_9allocatorIxEEE4dataB7v160002Ev, symObjAddr: 0x1060, symBinAddr: 0x100003440, symSize: 0x20 }
  - { offsetInCU: 0x9E3C, offset: 0x9E3C, size: 0x8, addend: 0x0, symName: __ZNKSt3__16vectorIxNS_9allocatorIxEEE8capacityB7v160002Ev, symObjAddr: 0x1080, symBinAddr: 0x100003460, symSize: 0x30 }
  - { offsetInCU: 0x9E62, offset: 0x9E62, size: 0x8, addend: 0x0, symName: __ZNKSt3__16vectorIxNS_9allocatorIxEEE9__end_capB7v160002Ev, symObjAddr: 0x10C0, symBinAddr: 0x1000034A0, symSize: 0x20 }
  - { offsetInCU: 0x9E88, offset: 0x9E88, size: 0x8, addend: 0x0, symName: __ZNKSt3__117__compressed_pairIPxNS_9allocatorIxEEE5firstB7v160002Ev, symObjAddr: 0x10E0, symBinAddr: 0x1000034C0, symSize: 0x20 }
  - { offsetInCU: 0x9EAE, offset: 0x9EAE, size: 0x8, addend: 0x0, symName: __ZNKSt3__122__compressed_pair_elemIPxLi0ELb0EE5__getB7v160002Ev, symObjAddr: 0x1100, symBinAddr: 0x1000034E0, symSize: 0x10 }
  - { offsetInCU: 0x9EED, offset: 0x9EED, size: 0x8, addend: 0x0, symName: __ZNSt3__16vectorIxNS_9allocatorIxEEE21_ConstructTransactionC1B7v160002ERS3_m, symObjAddr: 0x1110, symBinAddr: 0x1000034F0, symSize: 0x30 }
  - { offsetInCU: 0x9F35, offset: 0x9F35, size: 0x8, addend: 0x0, symName: __ZNSt3__116allocator_traitsINS_9allocatorIxEEE9constructB7v160002IxJEvEEvRS2_PT_DpOT0_, symObjAddr: 0x1140, symBinAddr: 0x100003520, symSize: 0x30 }
  - { offsetInCU: 0x9F77, offset: 0x9F77, size: 0x8, addend: 0x0, symName: __ZNSt3__16vectorIxNS_9allocatorIxEEE21_ConstructTransactionD1B7v160002Ev, symObjAddr: 0x1170, symBinAddr: 0x100003550, symSize: 0x20 }
  - { offsetInCU: 0x9FA1, offset: 0x9FA1, size: 0x8, addend: 0x0, symName: __ZNSt3__16vectorIxNS_9allocatorIxEEE21_ConstructTransactionC2B7v160002ERS3_m, symObjAddr: 0x1190, symBinAddr: 0x100003570, symSize: 0x40 }
  - { offsetInCU: 0x9FE9, offset: 0x9FE9, size: 0x8, addend: 0x0, symName: __ZNSt3__19allocatorIxE9constructB7v160002IxJEEEvPT_DpOT0_, symObjAddr: 0x11D0, symBinAddr: 0x1000035B0, symSize: 0x20 }
  - { offsetInCU: 0xA02B, offset: 0xA02B, size: 0x8, addend: 0x0, symName: __ZNSt3__16vectorIxNS_9allocatorIxEEE21_ConstructTransactionD2B7v160002Ev, symObjAddr: 0x11F0, symBinAddr: 0x1000035D0, symSize: 0x20 }
  - { offsetInCU: 0xA055, offset: 0xA055, size: 0x8, addend: 0x0, symName: __ZNSt3__128__exception_guard_exceptionsINS_6vectorIxNS_9allocatorIxEEE16__destroy_vectorEED2B7v160002Ev, symObjAddr: 0x1210, symBinAddr: 0x1000035F0, symSize: 0x40 }
  - { offsetInCU: 0xA07F, offset: 0xA07F, size: 0x8, addend: 0x0, symName: __ZNSt3__16vectorIxNS_9allocatorIxEEE16__destroy_vectorclB7v160002Ev, symObjAddr: 0x1250, symBinAddr: 0x100003630, symSize: 0x90 }
  - { offsetInCU: 0xA0A5, offset: 0xA0A5, size: 0x8, addend: 0x0, symName: __ZNKSt3__16vectorIxNS_9allocatorIxEEE17__annotate_deleteB7v160002Ev, symObjAddr: 0x12E0, symBinAddr: 0x1000036C0, symSize: 0xB0 }
  - { offsetInCU: 0xA0CB, offset: 0xA0CB, size: 0x8, addend: 0x0, symName: __ZNSt3__16vectorIxNS_9allocatorIxEEE7__clearB7v160002Ev, symObjAddr: 0x13A0, symBinAddr: 0x100003780, symSize: 0x20 }
  - { offsetInCU: 0xA0F1, offset: 0xA0F1, size: 0x8, addend: 0x0, symName: __ZNSt3__116allocator_traitsINS_9allocatorIxEEE10deallocateB7v160002ERS2_Pxm, symObjAddr: 0x13C0, symBinAddr: 0x1000037A0, symSize: 0x30 }
  - { offsetInCU: 0xA133, offset: 0xA133, size: 0x8, addend: 0x0, symName: __ZNKSt3__16vectorIxNS_9allocatorIxEEE4sizeB7v160002Ev, symObjAddr: 0x13F0, symBinAddr: 0x1000037D0, symSize: 0x20 }
  - { offsetInCU: 0xA159, offset: 0xA159, size: 0x8, addend: 0x0, symName: __ZNSt3__16vectorIxNS_9allocatorIxEEE22__base_destruct_at_endB7v160002EPx, symObjAddr: 0x1410, symBinAddr: 0x1000037F0, symSize: 0x80 }
  - { offsetInCU: 0xA19D, offset: 0xA19D, size: 0x8, addend: 0x0, symName: __ZNSt3__116allocator_traitsINS_9allocatorIxEEE7destroyB7v160002IxvEEvRS2_PT_, symObjAddr: 0x1490, symBinAddr: 0x100003870, symSize: 0x30 }
  - { offsetInCU: 0xA1DA, offset: 0xA1DA, size: 0x8, addend: 0x0, symName: __ZNSt3__19allocatorIxE7destroyB7v160002EPx, symObjAddr: 0x14C0, symBinAddr: 0x1000038A0, symSize: 0x10 }
  - { offsetInCU: 0xA20E, offset: 0xA20E, size: 0x8, addend: 0x0, symName: __ZNSt3__19allocatorIxE10deallocateB7v160002EPxm, symObjAddr: 0x14D0, symBinAddr: 0x1000038B0, symSize: 0x40 }
  - { offsetInCU: 0xA250, offset: 0xA250, size: 0x8, addend: 0x0, symName: __ZNSt3__16vectorIxNS_9allocatorIxEEE11__make_iterB7v160002EPx, symObjAddr: 0x1610, symBinAddr: 0x1000039F0, symSize: 0x30 }
  - { offsetInCU: 0xA285, offset: 0xA285, size: 0x8, addend: 0x0, symName: __ZNSt3__111__wrap_iterIPxEC1B7v160002EPKvS1_, symObjAddr: 0x1640, symBinAddr: 0x100003A20, symSize: 0x30 }
  - { offsetInCU: 0xA2CB, offset: 0xA2CB, size: 0x8, addend: 0x0, symName: __ZNSt3__111__wrap_iterIPxEC2B7v160002EPKvS1_, symObjAddr: 0x1670, symBinAddr: 0x100003A50, symSize: 0x20 }
  - { offsetInCU: 0xA311, offset: 0xA311, size: 0x8, addend: 0x0, symName: __ZNKSt3__111__wrap_iterIPxE4baseB7v160002Ev, symObjAddr: 0x16D0, symBinAddr: 0x100003AB0, symSize: 0x20 }
  - { offsetInCU: 0xA337, offset: 0xA337, size: 0x8, addend: 0x0, symName: __ZNSt3__16vectorIxNS_9allocatorIxEEEC2EmRKx, symObjAddr: 0x16F0, symBinAddr: 0x100003AD0, symSize: 0xE0 }
  - { offsetInCU: 0xA397, offset: 0xA397, size: 0x8, addend: 0x0, symName: __ZNSt3__16vectorIxNS_9allocatorIxEEE18__construct_at_endEmRKx, symObjAddr: 0x17D0, symBinAddr: 0x100003BB0, symSize: 0xC0 }
  - { offsetInCU: 0xA418, offset: 0xA418, size: 0x8, addend: 0x0, symName: __ZNSt3__116allocator_traitsINS_9allocatorIxEEE9constructB7v160002IxJRKxEvEEvRS2_PT_DpOT0_, symObjAddr: 0x1890, symBinAddr: 0x100003C70, symSize: 0x30 }
  - { offsetInCU: 0xA46F, offset: 0xA46F, size: 0x8, addend: 0x0, symName: __ZNSt3__19allocatorIxE9constructB7v160002IxJRKxEEEvPT_DpOT0_, symObjAddr: 0x18C0, symBinAddr: 0x100003CA0, symSize: 0x20 }
  - { offsetInCU: 0xA4CF, offset: 0xA4CF, size: 0x8, addend: 0x0, symName: __ZNKSt3__16__lessIxxEclB7v160002ERKxS3_, symObjAddr: 0x1930, symBinAddr: 0x100003D10, symSize: 0x30 }
  - { offsetInCU: 0xA511, offset: 0xA511, size: 0x8, addend: 0x0, symName: __ZNSt3__16vectorIxNS_9allocatorIxEEED2B7v160002Ev, symObjAddr: 0x1960, symBinAddr: 0x100003D40, symSize: 0x3A }
...
